; Function Attrs: mustprogress uwtable
define void @_ZN35MLRenderingSelectionParametersFrameC2EiP7QWidget(ptr noundef nonnull align 8 dereferenceable(72) %0, i32 noundef %1, ptr noundef %2) unnamed_addr #3 align 2 personality ptr @__gxx_personality_v0 {
  tail call void @_ZN6QFrameC2EP7QWidget6QFlagsIN2Qt10WindowTypeEE(ptr noundef nonnull align 8 dereferenceable(48) %0, ptr noundef %2, i32 0)
  %4 = getelementptr inbounds i8, ptr %0, i64 16
  %5 = getelementptr inbounds i8, ptr %0, i64 48
  store i32 %1, ptr %5, align 8
  store ptr getelementptr inbounds ({ [61 x ptr], [10 x ptr] }, ptr @_ZTV35MLRenderingSelectionParametersFrame, i64 0, i32 0, i64 2), ptr %0, align 8
  store ptr getelementptr inbounds ({ [61 x ptr], [10 x ptr] }, ptr @_ZTV35MLRenderingSelectionParametersFrame, i64 0, i32 1, i64 2), ptr %4, align 8
  invoke void @_ZN35MLRenderingSelectionParametersFrame7initGuiEv(ptr noundef nonnull align 8 dereferenceable(72) %0)
          to label %6 unwind label %7

6:                                                ; preds = %3
  ret void

7:                                                ; preds = %3
  %8 = landingpad { ptr, i32 }
          cleanup
  tail call void @_ZN6QFrameD2Ev(ptr noundef nonnull align 8 dereferenceable(48) %0) #23
  resume { ptr, i32 } %8
}